; Function Attrs: nounwind uwtable
define dso_local i32 @uv_pipe(ptr noundef writeonly captures(none) %0, i32 noundef %1, i32 noundef %2) local_unnamed_addr #0 {
  %4 = alloca [2 x i32], align 4
  call void @llvm.lifetime.start.p0(i64 8, ptr nonnull %4) #11
  %5 = and i32 %1, 64
  %.not = icmp eq i32 %5, 0
  %6 = and i32 %2, 64
  %.not16 = icmp eq i32 %6, 0
  %7 = and i32 %5, %2
  %or.cond.not.not = icmp eq i32 %7, 0
  %.0 = select i1 %or.cond.not.not, i32 524288, i32 526336
  %8 = call i32 @pipe2(ptr noundef nonnull %4, i32 noundef %.0) #11
  %.not17 = icmp eq i32 %8, 0
  br i1 %.not17, label %13, label %9

9:                                                ; preds = %3
  %10 = tail call ptr @__errno_location() #12
  %11 = load i32, ptr %10, align 4, !tbaa !23
  %12 = sub nsw i32 0, %11
  br label %40

13:                                               ; preds = %3
  %14 = and i32 %.0, 2048
  %.not18 = icmp eq i32 %14, 0
  br i1 %.not18, label %20, label %15

15:                                               ; preds = %13
  %16 = load i32, ptr %4, align 4, !tbaa !23
  store i32 %16, ptr %0, align 4, !tbaa !23
  %17 = getelementptr inbounds nuw i8, ptr %4, i64 4
  %18 = load i32, ptr %17, align 4, !tbaa !23
  %19 = getelementptr inbounds nuw i8, ptr %0, i64 4
  store i32 %18, ptr %19, align 4, !tbaa !23
  br label %40

20:                                               ; preds = %13
  br i1 %.not, label %24, label %21

21:                                               ; preds = %20
  %22 = load i32, ptr %4, align 4, !tbaa !23
  %23 = call i32 @uv__nonblock_ioctl(i32 noundef %22, i32 noundef 1) #11
  %.not19 = icmp eq i32 %23, 0
  br i1 %.not19, label %24, label %34

24:                                               ; preds = %21, %20
  br i1 %.not16, label %29, label %25

25:                                               ; preds = %24
  %26 = getelementptr inbounds nuw i8, ptr %4, i64 4
  %27 = load i32, ptr %26, align 4, !tbaa !23
  %28 = call i32 @uv__nonblock_ioctl(i32 noundef %27, i32 noundef 1) #11
  %.not21 = icmp eq i32 %28, 0
  br i1 %.not21, label %29, label %34

29:                                               ; preds = %25, %24
  %30 = load i32, ptr %4, align 4, !tbaa !23
  store i32 %30, ptr %0, align 4, !tbaa !23
  %31 = getelementptr inbounds nuw i8, ptr %4, i64 4
  %32 = load i32, ptr %31, align 4, !tbaa !23
  %33 = getelementptr inbounds nuw i8, ptr %0, i64 4
  store i32 %32, ptr %33, align 4, !tbaa !23
  br label %40

34:                                               ; preds = %25, %21
  %.012 = phi i32 [ %23, %21 ], [ %28, %25 ]
  %35 = load i32, ptr %4, align 4, !tbaa !23
  %36 = call i32 @uv__close(i32 noundef %35) #11
  %37 = getelementptr inbounds nuw i8, ptr %4, i64 4
  %38 = load i32, ptr %37, align 4, !tbaa !23
  %39 = call i32 @uv__close(i32 noundef %38) #11
  br label %40

40:                                               ; preds = %34, %29, %15, %9
  %.013 = phi i32 [ %12, %9 ], [ 0, %15 ], [ %.012, %34 ], [ 0, %29 ]
  call void @llvm.lifetime.end.p0(i64 8, ptr nonnull %4) #11
  ret i32 %.013
}